******************************************************************************
             TMS320C2000 Linker PC v6.4.2                      
******************************************************************************
>> Linked Mon Oct 26 14:01:11 2015

OUTPUT FILE NAME:   <firmware.out>
ENTRY POINT SYMBOL: "_c_int00"  address: 00008253


MEMORY CONFIGURATION

         name            origin    length      used     unused   attr    fill
----------------------  --------  ---------  --------  --------  ----  --------
PAGE 0:
  BEGIN                 00000000   00000002  00000002  00000000  RWIX
  RAMM0                 00000050   000003b0  00000098  00000318  RWIX
  PRAML0                00008000   00000900  00000306  000005fa  RWIX
  IQTABLES              003fe000   00000b50  00000000  00000b50  RWIX
  IQTABLES2             003feb50   0000008c  00000000  0000008c  RWIX
  IQTABLES3             003febdc   000000aa  00000000  000000aa  RWIX
  BOOTROM               003ff27c   00000d44  00000000  00000d44  RWIX
  RESET                 003fffc0   00000002  00000000  00000002  RWIX

PAGE 1:
  BOOT_RSVD             00000002   0000004e  00000000  0000004e  RWIX
  RAMM1                 00000400   00000400  00000300  00000100  RWIX
  DEV_EMU               00000880   00000105  00000004  00000101  RWIX
  SYS_PWR_CTL           00000985   00000003  00000003  00000000  RWIX
  FLASH_REGS            00000a80   00000060  00000008  00000058  RWIX
  CSM                   00000ae0   00000010  00000010  00000000  RWIX
  ADC_RESULT            00000b00   00000020  00000020  00000000  RWIX
  CPU_TIMER0            00000c00   00000008  00000008  00000000  RWIX
  CPU_TIMER1            00000c08   00000008  00000008  00000000  RWIX
  CPU_TIMER2            00000c10   00000008  00000008  00000000  RWIX
  PIE_CTRL              00000ce0   00000020  0000001a  00000006  RWIX
  PIE_VECT              00000d00   00000100  00000100  00000000  RWIX
  COMP1                 00006400   00000020  00000011  0000000f  RWIX
  COMP2                 00006420   00000020  00000011  0000000f  RWIX
  EPWM1                 00006800   00000040  00000040  00000000  RWIX
  EPWM2                 00006840   00000040  00000040  00000000  RWIX
  EPWM3                 00006880   00000040  00000040  00000000  RWIX
  EPWM4                 000068c0   00000040  00000040  00000000  RWIX
  ECAP1                 00006a00   00000020  00000020  00000000  RWIX
  GPIOCTRL              00006f80   00000040  00000040  00000000  RWIX
  GPIODAT               00006fc0   00000020  00000020  00000000  RWIX
  GPIOINT               00006fe0   00000020  0000000a  00000016  RWIX
  SYSTEM                00007010   00000020  0000001f  00000001  RWIX
  SPIA                  00007040   00000010  00000010  00000000  RWIX
  SCIA                  00007050   00000010  00000010  00000000  RWIX
  NMIINTRUPT            00007060   00000010  00000010  00000000  RWIX
  XINTRUPT              00007070   00000010  00000010  00000000  RWIX
  ADC                   00007100   00000080  00000051  0000002f  RWIX
  I2CA                  00007900   00000040  00000022  0000001e  RWIX
  DRAML0                00008900   00000700  00000008  000006f8  RWIX
  PARTID                003d7fff   00000001  00000001  00000000  RWIX
  CSM_PWL               003f7ff8   00000008  00000008  00000000  RWIX


SECTION ALLOCATION MAP

 output                                  attributes/
section   page    origin      length       input sections
--------  ----  ----------  ----------   ----------------
codestart 
*          0    00000000    00000002     
                  00000000    00000002     libF28027.lib : F2802x_asmfuncs.obj (codestart)

.cinit     0    00000050    00000016     
                  00000050    0000000a     rts2800_ml.lib : exit.obj (.cinit)
                  0000005a    00000005                    : _lock.obj (.cinit:__lock)
                  0000005f    00000005                    : _lock.obj (.cinit:__unlock)
                  00000064    00000002     --HOLE-- [fill = 0]

ramfuncs   0    00000066    00000004     
                  00000066    00000004     libF28027.lib : F2802x_asmfuncs.obj (ramfuncs)

.text      0    00008000    00000306     
                  00008000    00000130     libF28027.lib : sysctrl.obj (.text)
                  00008130    000000a2     main.obj (.text)
                  000081d2    00000081     libF28027.lib : epwm.obj (.text)
                  00008253    00000044     rts2800_ml.lib : boot.obj (.text)
                  00008297    00000022                    : i_div.obj (.text)
                  000082b9    00000019                    : args_main.obj (.text)
                  000082d2    00000019                    : exit.obj (.text)
                  000082eb    00000012     libF28027.lib : F2802x_asmfuncs.obj (.text)
                  000082fd    00000009     rts2800_ml.lib : _lock.obj (.text)

.pinit     0    00000050    00000000     UNINITIALIZED

.reset     0    003fffc0    00000002     DSECT
                  003fffc0    00000002     rts2800_ml.lib : boot.obj (.reset)

csm_rsvd   0    0000006a    00000076     
                  0000006a    00000076     libF28027.lib : F2802x_asmfuncs.obj (csm_rsvd)

csmpasswds 
*          0    000000e0    00000008     
                  000000e0    00000008     libF28027.lib : F2802x_asmfuncs.obj (csmpasswds)

.stack     1    00000400    00000300     UNINITIALIZED
                  00000400    00000300     --HOLE--

DevEmuRegsFile 
*          1    00000880    00000004     UNINITIALIZED
                  00000880    00000004     libF28027.lib : globals.obj (DevEmuRegsFile)

SysPwrCtrlRegsFile 
*          1    00000985    00000003     UNINITIALIZED
                  00000985    00000003     libF28027.lib : globals.obj (SysPwrCtrlRegsFile)

FlashRegsFile 
*          1    00000a80    00000008     UNINITIALIZED
                  00000a80    00000008     libF28027.lib : globals.obj (FlashRegsFile)

CsmRegsFile 
*          1    00000ae0    00000010     UNINITIALIZED
                  00000ae0    00000010     libF28027.lib : globals.obj (CsmRegsFile)

AdcResultFile 
*          1    00000b00    00000020     UNINITIALIZED
                  00000b00    00000020     libF28027.lib : globals.obj (AdcResultFile)

CpuTimer0RegsFile 
*          1    00000c00    00000008     UNINITIALIZED
                  00000c00    00000008     libF28027.lib : globals.obj (CpuTimer0RegsFile)

CpuTimer1RegsFile 
*          1    00000c08    00000008     UNINITIALIZED
                  00000c08    00000008     libF28027.lib : globals.obj (CpuTimer1RegsFile)

CpuTimer2RegsFile 
*          1    00000c10    00000008     UNINITIALIZED
                  00000c10    00000008     libF28027.lib : globals.obj (CpuTimer2RegsFile)

PieCtrlRegsFile 
*          1    00000ce0    0000001a     UNINITIALIZED
                  00000ce0    0000001a     libF28027.lib : globals.obj (PieCtrlRegsFile)

PieVectTableFile 
*          1    00000d00    00000100     UNINITIALIZED
                  00000d00    00000100     libF28027.lib : globals.obj (PieVectTableFile)

EmuKeyVar 
*          1    00000d00    00000001     UNINITIALIZED
                  00000d00    00000001     libF28027.lib : globals.obj (EmuKeyVar)

EmuBModeVar 
*          1    00000d01    00000001     UNINITIALIZED
                  00000d01    00000001     libF28027.lib : globals.obj (EmuBModeVar)

FlashCallbackVar 
*          1    00000d02    00000002     UNINITIALIZED
                  00000d02    00000002     libF28027.lib : globals.obj (FlashCallbackVar)

FlashScalingVar 
*          1    00000d04    00000002     UNINITIALIZED
                  00000d04    00000002     libF28027.lib : globals.obj (FlashScalingVar)

Comp1RegsFile 
*          1    00006400    00000011     UNINITIALIZED
                  00006400    00000011     libF28027.lib : globals.obj (Comp1RegsFile)

Comp2RegsFile 
*          1    00006420    00000011     UNINITIALIZED
                  00006420    00000011     libF28027.lib : globals.obj (Comp2RegsFile)

EPwm1RegsFile 
*          1    00006800    00000040     UNINITIALIZED
                  00006800    00000040     libF28027.lib : globals.obj (EPwm1RegsFile)

EPwm2RegsFile 
*          1    00006840    00000040     UNINITIALIZED
                  00006840    00000040     libF28027.lib : globals.obj (EPwm2RegsFile)

EPwm3RegsFile 
*          1    00006880    00000040     UNINITIALIZED
                  00006880    00000040     libF28027.lib : globals.obj (EPwm3RegsFile)

EPwm4RegsFile 
*          1    000068c0    00000040     UNINITIALIZED
                  000068c0    00000040     libF28027.lib : globals.obj (EPwm4RegsFile)

ECap1RegsFile 
*          1    00006a00    00000020     UNINITIALIZED
                  00006a00    00000020     libF28027.lib : globals.obj (ECap1RegsFile)

GpioCtrlRegsFile 
*          1    00006f80    00000040     UNINITIALIZED
                  00006f80    00000040     libF28027.lib : globals.obj (GpioCtrlRegsFile)

GpioDataRegsFile 
*          1    00006fc0    00000020     UNINITIALIZED
                  00006fc0    00000020     libF28027.lib : globals.obj (GpioDataRegsFile)

GpioIntRegsFile 
*          1    00006fe0    0000000a     UNINITIALIZED
                  00006fe0    0000000a     libF28027.lib : globals.obj (GpioIntRegsFile)

SysCtrlRegsFile 
*          1    00007010    0000001f     UNINITIALIZED
                  00007010    0000001f     libF28027.lib : globals.obj (SysCtrlRegsFile)

SpiaRegsFile 
*          1    00007040    00000010     UNINITIALIZED
                  00007040    00000010     libF28027.lib : globals.obj (SpiaRegsFile)

SciaRegsFile 
*          1    00007050    00000010     UNINITIALIZED
                  00007050    00000010     libF28027.lib : globals.obj (SciaRegsFile)

NmiIntruptRegsFile 
*          1    00007060    00000010     UNINITIALIZED
                  00007060    00000010     libF28027.lib : globals.obj (NmiIntruptRegsFile)

XIntruptRegsFile 
*          1    00007070    00000010     UNINITIALIZED
                  00007070    00000010     libF28027.lib : globals.obj (XIntruptRegsFile)

AdcRegsFile 
*          1    00007100    00000051     UNINITIALIZED
                  00007100    00000051     libF28027.lib : globals.obj (AdcRegsFile)

I2caRegsFile 
*          1    00007900    00000022     UNINITIALIZED
                  00007900    00000022     libF28027.lib : globals.obj (I2caRegsFile)

.ebss      1    00008900    00000008     UNINITIALIZED
                  00008900    00000004     rts2800_ml.lib : exit.obj (.ebss)
                  00008904    00000002                    : _lock.obj (.ebss:__lock)
                  00008906    00000002                    : _lock.obj (.ebss:__unlock)

PartIdRegsFile 
*          1    003d7fff    00000001     UNINITIALIZED
                  003d7fff    00000001     libF28027.lib : globals.obj (PartIdRegsFile)

CsmPwlFile 
*          1    003f7ff8    00000008     UNINITIALIZED
                  003f7ff8    00000008     libF28027.lib : globals.obj (CsmPwlFile)


GLOBAL DATA SYMBOLS: SORTED BY DATA PAGE

address     data page           name
--------    ----------------    ----
00000400      10 (00000400)     __stack

00000880      22 (00000880)     _DevEmuRegs

00000985      26 (00000980)     _SysPwrCtrlRegs

00000a80      2a (00000a80)     _FlashRegs

00000ae0      2b (00000ac0)     _CsmRegs

00000b00      2c (00000b00)     _AdcResult

00000c00      30 (00000c00)     _CpuTimer0Regs
00000c08      30 (00000c00)     _CpuTimer1Regs
00000c10      30 (00000c00)     _CpuTimer2Regs

00000ce0      33 (00000cc0)     _PieCtrlRegs

00000d00      34 (00000d00)     _EmuKey
00000d00      34 (00000d00)     _PieVectTable
00000d01      34 (00000d00)     _EmuBMode
00000d02      34 (00000d00)     _Flash_CallbackPtr
00000d04      34 (00000d00)     _Flash_CPUScaleFactor

00006400     190 (00006400)     _Comp1Regs
00006420     190 (00006400)     _Comp2Regs

00006800     1a0 (00006800)     _EPwm1Regs

00006840     1a1 (00006840)     _EPwm2Regs

00006880     1a2 (00006880)     _EPwm3Regs

000068c0     1a3 (000068c0)     _EPwm4Regs

00006a00     1a8 (00006a00)     _ECap1Regs

00006f80     1be (00006f80)     _GpioCtrlRegs

00006fc0     1bf (00006fc0)     _GpioDataRegs
00006fe0     1bf (00006fc0)     _GpioIntRegs

00007010     1c0 (00007000)     _SysCtrlRegs

00007040     1c1 (00007040)     _SpiaRegs
00007050     1c1 (00007040)     _SciaRegs
00007060     1c1 (00007040)     _NmiIntruptRegs
00007070     1c1 (00007040)     _XIntruptRegs

00007100     1c4 (00007100)     _AdcRegs

00007900     1e4 (00007900)     _I2caRegs

00008900     224 (00008900)     ___TI_cleanup_ptr
00008902     224 (00008900)     ___TI_dtors_ptr
00008904     224 (00008900)     __lock
00008906     224 (00008900)     __unlock

003d7fff    f5ff (003d7fc0)     _PartIdRegs

003f7ff8    fdff (003f7fc0)     _CsmPwl


GLOBAL SYMBOLS: SORTED ALPHABETICALLY BY Name 

page  address   name                 
----  -------   ----                 
0     00008000  .text                
0     000082d2  C$$EXIT              
0     00008297  I$$DIV               
0     000082a8  I$$MOD               
1     00007100  _AdcRegs             
1     00000b00  _AdcResult           
1     00006400  _Comp1Regs           
1     00006420  _Comp2Regs           
1     00000c00  _CpuTimer0Regs       
1     00000c08  _CpuTimer1Regs       
1     00000c10  _CpuTimer2Regs       
1     003f7ff8  _CsmPwl              
1     00000ae0  _CsmRegs             
0     000080b3  _CsmUnlock           
0     000082f6  _DSP28x_DisableInt   
0     000082fa  _DSP28x_RestoreInt   
0     00000066  _DSP28x_usDelay      
1     00000880  _DevEmuRegs          
0     00008024  _DisableDog          
1     00006a00  _ECap1Regs           
1     00006800  _EPwm1Regs           
1     00006840  _EPwm2Regs           
1     00006880  _EPwm3Regs           
1     000068c0  _EPwm4Regs           
1     00000d01  _EmuBMode            
1     00000d00  _EmuKey              
0     0000811a  _ExtOscSel           
1     00000a80  _FlashRegs           
1     00000d04  _Flash_CPUScaleFactor
1     00000d02  _Flash_CallbackPtr   
1     00006f80  _GpioCtrlRegs        
1     00006fc0  _GpioDataRegs        
1     00006fe0  _GpioIntRegs         
1     00007900  _I2caRegs            
0     000081d2  _InitEPwm            
0     000081dc  _InitEPwm1Gpio       
0     000081ee  _InitEPwm2Gpio       
0     00008200  _InitEPwm3Gpio       
0     00008214  _InitEPwm4Gpio       
0     000081d3  _InitEPwmGpio        
0     00008228  _InitEPwmSyncGpio    
0     00008081  _InitPeripheralClocks
0     0000802c  _InitPll             
0     00008000  _InitSysCtrl         
0     00008238  _InitTzGpio          
0     000080e4  _IntOsc1Sel          
0     000080f4  _IntOsc2Sel          
1     00007060  _NmiIntruptRegs      
1     003d7fff  _PartIdRegs          
1     00000ce0  _PieCtrlRegs         
1     00000d00  _PieVectTable        
1     00007050  _SciaRegs            
0     0000801a  _ServiceDog          
1     00007040  _SpiaRegs            
1     00007010  _SysCtrlRegs         
1     00000985  _SysPwrCtrlRegs      
1     00007070  _XIntruptRegs        
0     00008106  _XtalOscSel          
1     00000700  __STACK_END          
abs   00000300  __STACK_SIZE         
1     00008900  ___TI_cleanup_ptr    
1     00008902  ___TI_dtors_ptr      
abs   ffffffff  ___binit__           
abs   ffffffff  ___c_args__          
0     00000050  ___cinit__           
0     00008306  ___etext__           
abs   ffffffff  ___pinit__           
0     00008000  ___text__            
0     000082b9  __args_main          
1     00008904  __lock               
0     00008305  __nop                
0     00008301  __register_lock      
0     000082fd  __register_unlock    
1     00000400  __stack              
1     00008906  __unlock             
0     000082d2  _abort               
0     00008253  _c_int00             
0     00008139  _epwmInit            
0     000082d4  _exit                
0     00008130  _main                
0     000082f3  _setDBGIER           
abs   ffffffff  binit                
0     00000050  cinit                
0     00000000  code_start           
0     00008306  etext                
abs   ffffffff  pinit                


GLOBAL SYMBOLS: SORTED BY Symbol Address 

page  address   name                 
----  -------   ----                 
0     00000000  code_start           
0     00000050  ___cinit__           
0     00000050  cinit                
0     00000066  _DSP28x_usDelay      
0     00008000  .text                
0     00008000  _InitSysCtrl         
0     00008000  ___text__            
0     0000801a  _ServiceDog          
0     00008024  _DisableDog          
0     0000802c  _InitPll             
0     00008081  _InitPeripheralClocks
0     000080b3  _CsmUnlock           
0     000080e4  _IntOsc1Sel          
0     000080f4  _IntOsc2Sel          
0     00008106  _XtalOscSel          
0     0000811a  _ExtOscSel           
0     00008130  _main                
0     00008139  _epwmInit            
0     000081d2  _InitEPwm            
0     000081d3  _InitEPwmGpio        
0     000081dc  _InitEPwm1Gpio       
0     000081ee  _InitEPwm2Gpio       
0     00008200  _InitEPwm3Gpio       
0     00008214  _InitEPwm4Gpio       
0     00008228  _InitEPwmSyncGpio    
0     00008238  _InitTzGpio          
0     00008253  _c_int00             
0     00008297  I$$DIV               
0     000082a8  I$$MOD               
0     000082b9  __args_main          
0     000082d2  C$$EXIT              
0     000082d2  _abort               
0     000082d4  _exit                
0     000082f3  _setDBGIER           
0     000082f6  _DSP28x_DisableInt   
0     000082fa  _DSP28x_RestoreInt   
0     000082fd  __register_unlock    
0     00008301  __register_lock      
0     00008305  __nop                
0     00008306  ___etext__           
0     00008306  etext                
1     00000400  __stack              
1     00000700  __STACK_END          
1     00000880  _DevEmuRegs          
1     00000985  _SysPwrCtrlRegs      
1     00000a80  _FlashRegs           
1     00000ae0  _CsmRegs             
1     00000b00  _AdcResult           
1     00000c00  _CpuTimer0Regs       
1     00000c08  _CpuTimer1Regs       
1     00000c10  _CpuTimer2Regs       
1     00000ce0  _PieCtrlRegs         
1     00000d00  _EmuKey              
1     00000d00  _PieVectTable        
1     00000d01  _EmuBMode            
1     00000d02  _Flash_CallbackPtr   
1     00000d04  _Flash_CPUScaleFactor
1     00006400  _Comp1Regs           
1     00006420  _Comp2Regs           
1     00006800  _EPwm1Regs           
1     00006840  _EPwm2Regs           
1     00006880  _EPwm3Regs           
1     000068c0  _EPwm4Regs           
1     00006a00  _ECap1Regs           
1     00006f80  _GpioCtrlRegs        
1     00006fc0  _GpioDataRegs        
1     00006fe0  _GpioIntRegs         
1     00007010  _SysCtrlRegs         
1     00007040  _SpiaRegs            
1     00007050  _SciaRegs            
1     00007060  _NmiIntruptRegs      
1     00007070  _XIntruptRegs        
1     00007100  _AdcRegs             
1     00007900  _I2caRegs            
1     00008900  ___TI_cleanup_ptr    
1     00008902  ___TI_dtors_ptr      
1     00008904  __lock               
1     00008906  __unlock             
1     003d7fff  _PartIdRegs          
1     003f7ff8  _CsmPwl              
abs   00000300  __STACK_SIZE         
abs   ffffffff  ___binit__           
abs   ffffffff  ___c_args__          
abs   ffffffff  ___pinit__           
abs   ffffffff  binit                
abs   ffffffff  pinit                

[86 symbols]
